target datalayout = "e-m:e-p270:32:32-p271:32:32-p272:64:64-i64:64-i128:128-f80:128-n8:16:32:64-S128"
target triple = "x86_64-pc-linux-gnu"

%struct.Abc_Obj_t_ = type { ptr, ptr, i32, i32, %struct.Vec_Int_t_, %struct.Vec_Int_t_, %union.anon, %union.anon.0 }
%struct.Vec_Int_t_ = type { i32, i32, ptr }
%union.anon = type { ptr }
%union.anon.0 = type { ptr }

; Function Attrs: nounwind uwtable
define internal i32 @Abc_ObjFaninNum(ptr noundef %0) #0 {
  %2 = alloca ptr, align 8
  store ptr %0, ptr %2, align 8
  %3 = load ptr, ptr %2, align 8
  %4 = getelementptr inbounds %struct.Abc_Obj_t_, ptr %3, i32 0, i32 4
  %5 = getelementptr inbounds %struct.Vec_Int_t_, ptr %4, i32 0, i32 1
  %6 = load i32, ptr %5, align 4
  ret i32 %6
}

; Function Attrs: nounwind uwtable
define i32 @Abc_NodeMffcSize(ptr noundef %0) #0 {
  %2 = alloca i32, align 4
  %3 = alloca ptr, align 8
  %4 = alloca i32, align 4
  %5 = alloca i32, align 4
  store ptr %0, ptr %3, align 8
  %6 = load ptr, ptr %3, align 8
  %7 = call i32 @Abc_ObjFaninNum(ptr noundef %6)
  %8 = icmp eq i32 %7, 0
  br i1 %8, label %9, label %10

9:                                                ; preds = %1
  store i32 0, ptr %2, align 4
  br label %16

10:                                               ; preds = %1
  %11 = load ptr, ptr %3, align 8
  %12 = call i32 @Abc_NodeRefDeref(ptr noundef %11, i32 noundef 0, i32 noundef 0)
  store i32 %12, ptr %4, align 4
  %13 = load ptr, ptr %3, align 8
  %14 = call i32 @Abc_NodeRefDeref(ptr noundef %13, i32 noundef 1, i32 noundef 0)
  store i32 %14, ptr %5, align 4
  %15 = load i32, ptr %4, align 4
  store i32 %15, ptr %2, align 4
  br label %16

16:                                               ; preds = %10, %9
  %17 = load i32, ptr %2, align 4
  ret i32 %17
}